target datalayout = "e-m:e-p270:32:32-p271:32:32-p272:64:64-i64:64-i128:128-f80:128-n8:16:32:64-S128"
target triple = "x86_64-pc-linux-gnu"

%struct.MinRegMan_t_ = type { i32, i32, i32, i32, i32, i32, i32, i32, i32, i32, i32, ptr, i32, i32, i32, i32, i32, i32, i32, i32, i32, ptr, ptr, ptr, ptr, ptr, ptr, ptr, ptr, ptr, i32 }
%struct.Vec_Int_t_ = type { i32, i32, ptr }
%struct.Abc_Obj_t_ = type { ptr, ptr, i32, i32, %struct.Vec_Int_t_, %struct.Vec_Int_t_, %union.anon.0, %union.anon.1 }
%union.anon.0 = type { ptr }
%union.anon.1 = type { ptr }
%struct.Flow_Data_t_ = type { i16, %union.anon, i32 }
%union.anon = type { ptr }

@pManMR = global ptr null, align 8

; Function Attrs: inlinehint nounwind uwtable
define internal i32 @Abc_ObjIsLatch(ptr noundef %0) #3 {
  %2 = alloca ptr, align 8
  store ptr %0, ptr %2, align 8, !tbaa !46
  %3 = load ptr, ptr %2, align 8, !tbaa !46
  %4 = getelementptr inbounds nuw %struct.Abc_Obj_t_, ptr %3, i32 0, i32 3
  %5 = load i32, ptr %4, align 4
  %6 = and i32 %5, 15
  %7 = icmp eq i32 %6, 8
  %8 = zext i1 %7 to i32
  ret i32 %8
}

; Function Attrs: inlinehint nounwind uwtable
define internal i32 @Abc_ObjId(ptr noundef %0) #3 {
  %2 = alloca ptr, align 8
  store ptr %0, ptr %2, align 8, !tbaa !46
  %3 = load ptr, ptr %2, align 8, !tbaa !46
  %4 = getelementptr inbounds nuw %struct.Abc_Obj_t_, ptr %3, i32 0, i32 2
  %5 = load i32, ptr %4, align 8, !tbaa !92
  ret i32 %5
}

; Function Attrs: nounwind uwtable
define i32 @Abc_FlowRetime_IsAcrossCut(ptr noundef %0, ptr noundef %1) #0 {
  %3 = alloca i32, align 4
  %4 = alloca ptr, align 8
  %5 = alloca ptr, align 8
  store ptr %0, ptr %4, align 8, !tbaa !46
  store ptr %1, ptr %5, align 8, !tbaa !46
  %6 = load ptr, ptr @pManMR, align 8, !tbaa !10
  %7 = getelementptr inbounds nuw %struct.MinRegMan_t_, ptr %6, i32 0, i32 23
  %8 = load ptr, ptr %7, align 8, !tbaa !56
  %9 = load ptr, ptr %4, align 8, !tbaa !46
  %10 = call i32 @Abc_ObjId(ptr noundef %9)
  %11 = zext i32 %10 to i64
  %12 = getelementptr inbounds nuw %struct.Flow_Data_t_, ptr %8, i64 %11
  %13 = load i16, ptr %12, align 8
  %14 = zext i16 %13 to i32
  %15 = and i32 %14, 2
  %16 = icmp ne i32 %15, 0
  br i1 %16, label %17, label %107

17:                                               ; preds = %2
  %18 = load ptr, ptr @pManMR, align 8, !tbaa !10
  %19 = getelementptr inbounds nuw %struct.MinRegMan_t_, ptr %18, i32 0, i32 23
  %20 = load ptr, ptr %19, align 8, !tbaa !56
  %21 = load ptr, ptr %4, align 8, !tbaa !46
  %22 = call i32 @Abc_ObjId(ptr noundef %21)
  %23 = zext i32 %22 to i64
  %24 = getelementptr inbounds nuw %struct.Flow_Data_t_, ptr %20, i64 %23
  %25 = load i16, ptr %24, align 8
  %26 = zext i16 %25 to i32
  %27 = and i32 %26, 1
  %28 = icmp ne i32 %27, 0
  br i1 %28, label %107, label %29

29:                                               ; preds = %17
  %30 = load ptr, ptr @pManMR, align 8, !tbaa !10
  %31 = getelementptr inbounds nuw %struct.MinRegMan_t_, ptr %30, i32 0, i32 13
  %32 = load i32, ptr %31, align 4, !tbaa !103
  %33 = icmp ne i32 %32, 0
  br i1 %33, label %34, label %80

34:                                               ; preds = %29
  %35 = load ptr, ptr @pManMR, align 8, !tbaa !10
  %36 = getelementptr inbounds nuw %struct.MinRegMan_t_, ptr %35, i32 0, i32 23
  %37 = load ptr, ptr %36, align 8, !tbaa !56
  %38 = load ptr, ptr %5, align 8, !tbaa !46
  %39 = call i32 @Abc_ObjId(ptr noundef %38)
  %40 = zext i32 %39 to i64
  %41 = getelementptr inbounds nuw %struct.Flow_Data_t_, ptr %37, i64 %40
  %42 = load i16, ptr %41, align 8
  %43 = zext i16 %42 to i32
  %44 = and i32 %43, 2
  %45 = icmp ne i32 %44, 0
  br i1 %45, label %46, label %78

46:                                               ; preds = %34
  %47 = load ptr, ptr @pManMR, align 8, !tbaa !10
  %48 = getelementptr inbounds nuw %struct.MinRegMan_t_, ptr %47, i32 0, i32 23
  %49 = load ptr, ptr %48, align 8, !tbaa !56
  %50 = load ptr, ptr %5, align 8, !tbaa !46
  %51 = call i32 @Abc_ObjId(ptr noundef %50)
  %52 = zext i32 %51 to i64
  %53 = getelementptr inbounds nuw %struct.Flow_Data_t_, ptr %49, i64 %52
  %54 = load i16, ptr %53, align 8
  %55 = zext i16 %54 to i32
  %56 = and i32 %55, 144
  %57 = load ptr, ptr @pManMR, align 8, !tbaa !10
  %58 = getelementptr inbounds nuw %struct.MinRegMan_t_, ptr %57, i32 0, i32 18
  %59 = load i32, ptr %58, align 8, !tbaa !84
  %60 = and i32 %56, %59
  %61 = icmp ne i32 %60, 0
  br i1 %61, label %78, label %62

62:                                               ; preds = %46
  %63 = load ptr, ptr @pManMR, align 8, !tbaa !10
  %64 = getelementptr inbounds nuw %struct.MinRegMan_t_, ptr %63, i32 0, i32 23
  %65 = load ptr, ptr %64, align 8, !tbaa !56
  %66 = load ptr, ptr %5, align 8, !tbaa !46
  %67 = call i32 @Abc_ObjId(ptr noundef %66)
  %68 = zext i32 %67 to i64
  %69 = getelementptr inbounds nuw %struct.Flow_Data_t_, ptr %65, i64 %68
  %70 = load i16, ptr %69, align 8
  %71 = zext i16 %70 to i32
  %72 = and i32 %71, 8
  %73 = icmp ne i32 %72, 0
  br i1 %73, label %78, label %74

74:                                               ; preds = %62
  %75 = load ptr, ptr %5, align 8, !tbaa !46
  %76 = call i32 @Abc_ObjIsLatch(ptr noundef %75)
  %77 = icmp ne i32 %76, 0
  br i1 %77, label %78, label %79

78:                                               ; preds = %74, %62, %46, %34
  store i32 1, ptr %3, align 4
  br label %108

79:                                               ; preds = %74
  br label %106

80:                                               ; preds = %29
  %81 = load ptr, ptr @pManMR, align 8, !tbaa !10
  %82 = getelementptr inbounds nuw %struct.MinRegMan_t_, ptr %81, i32 0, i32 23
  %83 = load ptr, ptr %82, align 8, !tbaa !56
  %84 = load ptr, ptr %5, align 8, !tbaa !46
  %85 = call i32 @Abc_ObjId(ptr noundef %84)
  %86 = zext i32 %85 to i64
  %87 = getelementptr inbounds nuw %struct.Flow_Data_t_, ptr %83, i64 %86
  %88 = load i16, ptr %87, align 8
  %89 = zext i16 %88 to i32
  %90 = and i32 %89, 1
  %91 = icmp ne i32 %90, 0
  br i1 %91, label %104, label %92

92:                                               ; preds = %80
  %93 = load ptr, ptr @pManMR, align 8, !tbaa !10
  %94 = getelementptr inbounds nuw %struct.MinRegMan_t_, ptr %93, i32 0, i32 23
  %95 = load ptr, ptr %94, align 8, !tbaa !56
  %96 = load ptr, ptr %5, align 8, !tbaa !46
  %97 = call i32 @Abc_ObjId(ptr noundef %96)
  %98 = zext i32 %97 to i64
  %99 = getelementptr inbounds nuw %struct.Flow_Data_t_, ptr %95, i64 %98
  %100 = load i16, ptr %99, align 8
  %101 = zext i16 %100 to i32
  %102 = and i32 %101, 8
  %103 = icmp ne i32 %102, 0
  br i1 %103, label %104, label %105

104:                                              ; preds = %92, %80
  store i32 1, ptr %3, align 4
  br label %108

105:                                              ; preds = %92
  br label %106

106:                                              ; preds = %105, %79
  br label %107

107:                                              ; preds = %106, %17, %2
  store i32 0, ptr %3, align 4
  br label %108

108:                                              ; preds = %107, %104, %78
  %109 = load i32, ptr %3, align 4
  ret i32 %109
}