; Function Attrs: mustprogress nofree norecurse nosync nounwind willreturn memory(read, inaccessiblemem: none) uwtable
define range(i32 0, 2) i32 @Abc_FlowRetime_IsAcrossCut(ptr noundef readonly captures(none) %0, ptr noundef readonly captures(none) %1) local_unnamed_addr #10 {
  %3 = load ptr, ptr @pManMR, align 8, !tbaa !3
  %4 = getelementptr inbounds nuw i8, ptr %3, i64 112
  %5 = load ptr, ptr %4, align 8, !tbaa !71
  %6 = getelementptr i8, ptr %0, i64 16
  %.val22 = load i32, ptr %6, align 8, !tbaa !80
  %7 = zext i32 %.val22 to i64
  %8 = getelementptr inbounds nuw %struct.Flow_Data_t_, ptr %5, i64 %7
  %9 = load i16, ptr %8, align 8
  %10 = and i16 %9, 3
  %or.cond = icmp eq i16 %10, 2
  br i1 %or.cond, label %11, label %32

11:                                               ; preds = %2
  %12 = getelementptr inbounds nuw i8, ptr %3, i64 60
  %13 = load i32, ptr %12, align 4, !tbaa !72
  %.not9 = icmp eq i32 %13, 0
  %14 = getelementptr i8, ptr %1, i64 16
  %.val17 = load i32, ptr %14, align 8, !tbaa !80
  %15 = zext i32 %.val17 to i64
  %16 = getelementptr inbounds nuw %struct.Flow_Data_t_, ptr %5, i64 %15
  %17 = load i16, ptr %16, align 8
  br i1 %.not9, label %30, label %18

18:                                               ; preds = %11
  %19 = and i16 %17, 2
  %.not12 = icmp eq i16 %19, 0
  br i1 %.not12, label %33, label %20

20:                                               ; preds = %18
  %21 = and i16 %17, 144
  %22 = zext nneg i16 %21 to i32
  %23 = getelementptr inbounds nuw i8, ptr %3, i64 80
  %24 = load i32, ptr %23, align 8, !tbaa !94
  %25 = and i32 %24, %22
  %.not13 = icmp eq i32 %25, 0
  %26 = and i16 %17, 8
  %.not14 = icmp eq i16 %26, 0
  %or.cond23 = and i1 %.not14, %.not13
  br i1 %or.cond23, label %27, label %33

27:                                               ; preds = %20
  %28 = getelementptr i8, ptr %1, i64 20
  %.val = load i32, ptr %28, align 4
  %29 = and i32 %.val, 15
  %.not = icmp eq i32 %29, 8
  br i1 %.not, label %33, label %32

30:                                               ; preds = %11
  %31 = and i16 %17, 9
  %or.cond24 = icmp eq i16 %31, 0
  br i1 %or.cond24, label %32, label %33

32:                                               ; preds = %30, %27, %2
  br label %33

33:                                               ; preds = %30, %18, %20, %27, %32
  %.0 = phi i32 [ 0, %32 ], [ 1, %27 ], [ 1, %20 ], [ 1, %18 ], [ 1, %30 ]
  ret i32 %.0
}